target datalayout = "e-m:e-p270:32:32-p271:32:32-p272:64:64-i64:64-i128:128-f80:128-n8:16:32:64-S128"
target triple = "x86_64-pc-linux-gnu"

%struct.AVFilterContext = type { ptr, ptr, ptr, ptr, ptr, i32, ptr, ptr, i32, ptr, ptr, i32, i32, ptr, ptr, ptr, ptr, i32, ptr, i32, i32 }
%struct.ThumbContext = type { ptr, i32, i32, i32, ptr, %struct.AVRational, i32, ptr, [4 x i32], [4 x i32] }
%struct.AVRational = type { i32, i32 }
%struct.AVFilterLink = type { ptr, ptr, ptr, ptr, i32, i32, i32, i32, %struct.AVRational, i32, i32, i32, %struct.AVChannelLayout, %struct.AVRational, ptr, i32, %struct.AVFilterFormatsConfig, %struct.AVFilterFormatsConfig }
%struct.AVChannelLayout = type { i32, i32, %union.anon.1, ptr }
%union.anon.1 = type { i64 }
%struct.AVFilterFormatsConfig = type { ptr, ptr, ptr, ptr, ptr }

; Function Attrs: nounwind uwtable
define internal i32 @request_frame(ptr noundef %0) #1 {
  %2 = alloca i32, align 4
  %3 = alloca ptr, align 8
  %4 = alloca ptr, align 8
  %5 = alloca ptr, align 8
  %6 = alloca i32, align 4
  %7 = alloca i32, align 4
  store ptr %0, ptr %3, align 8, !tbaa !36
  call void @llvm.lifetime.start.p0(i64 8, ptr %4) #10
  %8 = load ptr, ptr %3, align 8, !tbaa !36
  %9 = getelementptr inbounds nuw %struct.AVFilterLink, ptr %8, i32 0, i32 0
  %10 = load ptr, ptr %9, align 8, !tbaa !95
  store ptr %10, ptr %4, align 8, !tbaa !4
  call void @llvm.lifetime.start.p0(i64 8, ptr %5) #10
  %11 = load ptr, ptr %4, align 8, !tbaa !4
  %12 = getelementptr inbounds nuw %struct.AVFilterContext, ptr %11, i32 0, i32 9
  %13 = load ptr, ptr %12, align 8, !tbaa !9
  store ptr %13, ptr %5, align 8, !tbaa !22
  call void @llvm.lifetime.start.p0(i64 4, ptr %6) #10
  %14 = load ptr, ptr %4, align 8, !tbaa !4
  %15 = getelementptr inbounds nuw %struct.AVFilterContext, ptr %14, i32 0, i32 4
  %16 = load ptr, ptr %15, align 8, !tbaa !96
  %17 = getelementptr inbounds ptr, ptr %16, i64 0
  %18 = load ptr, ptr %17, align 8, !tbaa !36
  %19 = call i32 @ff_request_frame(ptr noundef %18)
  store i32 %19, ptr %6, align 4, !tbaa !30
  %20 = load i32, ptr %6, align 4, !tbaa !30
  %21 = icmp eq i32 %20, -541478725
  br i1 %21, label %22, label %37

22:                                               ; preds = %1
  %23 = load ptr, ptr %5, align 8, !tbaa !22
  %24 = getelementptr inbounds nuw %struct.ThumbContext, ptr %23, i32 0, i32 1
  %25 = load i32, ptr %24, align 8, !tbaa !47
  %26 = icmp ne i32 %25, 0
  br i1 %26, label %27, label %37

27:                                               ; preds = %22
  %28 = load ptr, ptr %3, align 8, !tbaa !36
  %29 = load ptr, ptr %4, align 8, !tbaa !4
  %30 = call ptr @get_best_frame(ptr noundef %29)
  %31 = call i32 @ff_filter_frame(ptr noundef %28, ptr noundef %30)
  store i32 %31, ptr %6, align 4, !tbaa !30
  %32 = load i32, ptr %6, align 4, !tbaa !30
  %33 = icmp slt i32 %32, 0
  br i1 %33, label %34, label %36

34:                                               ; preds = %27
  %35 = load i32, ptr %6, align 4, !tbaa !30
  store i32 %35, ptr %2, align 4
  store i32 1, ptr %7, align 4
  br label %43

36:                                               ; preds = %27
  store i32 -541478725, ptr %6, align 4, !tbaa !30
  br label %37

37:                                               ; preds = %36, %22, %1
  %38 = load i32, ptr %6, align 4, !tbaa !30
  %39 = icmp slt i32 %38, 0
  br i1 %39, label %40, label %42

40:                                               ; preds = %37
  %41 = load i32, ptr %6, align 4, !tbaa !30
  store i32 %41, ptr %2, align 4
  store i32 1, ptr %7, align 4
  br label %43

42:                                               ; preds = %37
  store i32 0, ptr %2, align 4
  store i32 1, ptr %7, align 4
  br label %43

43:                                               ; preds = %42, %40, %34
  call void @llvm.lifetime.end.p0(i64 4, ptr %6) #10
  call void @llvm.lifetime.end.p0(i64 8, ptr %5) #10
  call void @llvm.lifetime.end.p0(i64 8, ptr %4) #10
  %44 = load i32, ptr %2, align 4
  ret i32 %44
}