; Function Attrs: nounwind uwtable
define internal range(i32 -2147483648, 1) i32 @request_frame(ptr noundef %0) #1 {
  %2 = load ptr, ptr %0, align 8, !tbaa !82
  %3 = getelementptr inbounds nuw i8, ptr %2, i64 72
  %4 = load ptr, ptr %3, align 8, !tbaa !4
  %5 = getelementptr inbounds nuw i8, ptr %2, i64 32
  %6 = load ptr, ptr %5, align 8, !tbaa !83
  %7 = load ptr, ptr %6, align 8, !tbaa !40
  %8 = tail call i32 @ff_request_frame(ptr noundef %7) #9
  %.fr = freeze i32 %8
  %9 = icmp eq i32 %.fr, -541478725
  br i1 %9, label %10, label %17

10:                                               ; preds = %1
  %11 = getelementptr inbounds nuw i8, ptr %4, i64 8
  %12 = load i32, ptr %11, align 8, !tbaa !42
  %.not = icmp eq i32 %12, 0
  br i1 %.not, label %.thread, label %13

13:                                               ; preds = %10
  %14 = tail call fastcc ptr @get_best_frame(ptr noundef nonnull %2)
  %15 = tail call i32 @ff_filter_frame(ptr noundef nonnull %0, ptr noundef %14) #9
  %16 = icmp slt i32 %15, 0
  br i1 %16, label %18, label %.thread

.thread:                                          ; preds = %10, %13
  br label %18

17:                                               ; preds = %1
  %spec.select = tail call i32 @llvm.smin.i32(i32 %.fr, i32 0)
  br label %18

18:                                               ; preds = %17, %.thread, %13
  %.011 = phi i32 [ %15, %13 ], [ -541478725, %.thread ], [ %spec.select, %17 ]
  ret i32 %.011
}